; Function Attrs: mustprogress uwtable
define ptr @gguf_get_arr_data(ptr noundef readonly captures(none) %0, i64 noundef %1) local_unnamed_addr #2 {
  %3 = icmp sgt i64 %1, -1
  br i1 %3, label %4, label %14

4:                                                ; preds = %2
  %5 = getelementptr inbounds nuw i8, ptr %0, i64 8
  %6 = getelementptr inbounds nuw i8, ptr %0, i64 16
  %7 = load ptr, ptr %6, align 8, !tbaa !49
  %8 = load ptr, ptr %5, align 8, !tbaa !48
  %9 = ptrtoint ptr %7 to i64
  %10 = ptrtoint ptr %8 to i64
  %11 = sub i64 %9, %10
  %12 = sdiv exact i64 %11, 88
  %13 = icmp slt i64 %1, %12
  br i1 %13, label %15, label %14

14:                                               ; preds = %4, %2
  tail call void (ptr, i32, ptr, ...) @ggml_abort(ptr noundef nonnull @.str.28, i32 noundef 779, ptr noundef nonnull @.str.29, ptr noundef nonnull @.str.53) #33
  unreachable

15:                                               ; preds = %4
  %16 = getelementptr inbounds nuw %struct.gguf_kv, ptr %8, i64 %1
  %17 = getelementptr inbounds nuw i8, ptr %16, i64 36
  %18 = load i32, ptr %17, align 4, !tbaa !17
  %.not = icmp eq i32 %18, 8
  br i1 %.not, label %19, label %20

19:                                               ; preds = %15
  tail call void (ptr, i32, ptr, ...) @ggml_abort(ptr noundef nonnull @.str.28, i32 noundef 780, ptr noundef nonnull @.str.29, ptr noundef nonnull @.str.55) #33
  unreachable

20:                                               ; preds = %15
  %21 = getelementptr inbounds nuw i8, ptr %16, i64 40
  %22 = load ptr, ptr %21, align 8, !tbaa !98
  ret ptr %22
}